; ModuleID = 'bench/linux/original/decompress.ll'
source_filename = "bench/linux/original/decompress.ll"
target datalayout = "e-m:e-p270:32:32-p271:32:32-p272:64:64-i64:64-i128:128-f80:128-n8:16:32:64-S128"
target triple = "x86_64-unknown-linux-gnu"

%struct.compress_format = type { [2 x i8], ptr, ptr }

@compressed_formats = internal constant [9 x %struct.compress_format] [%struct.compress_format { [2 x i8] c"\1F\8B", ptr @.str, ptr @gunzip }, %struct.compress_format { [2 x i8] c"\1F\9E", ptr @.str, ptr @gunzip }, %struct.compress_format { [2 x i8] c"BZ", ptr @.str.1, ptr @bunzip2 }, %struct.compress_format { [2 x i8] c"]\00", ptr @.str.2, ptr @unlzma }, %struct.compress_format { [2 x i8] c"\FD7", ptr @.str.3, ptr @unxz }, %struct.compress_format { [2 x i8] c"\89L", ptr @.str.4, ptr @unlzo }, %struct.compress_format { [2 x i8] c"\02!", ptr @.str.5, ptr @unlz4 }, %struct.compress_format { [2 x i8] c"(\B5", ptr @.str.6, ptr @unzstd }, %struct.compress_format zeroinitializer], section ".init.rodata", align 16
@.str = private unnamed_addr constant [5 x i8] c"gzip\00", align 1
@.str.1 = private unnamed_addr constant [6 x i8] c"bzip2\00", align 1
@.str.2 = private unnamed_addr constant [5 x i8] c"lzma\00", align 1
@.str.3 = private unnamed_addr constant [3 x i8] c"xz\00", align 1
@.str.4 = private unnamed_addr constant [4 x i8] c"lzo\00", align 1
@.str.5 = private unnamed_addr constant [4 x i8] c"lz4\00", align 1
@.str.6 = private unnamed_addr constant [5 x i8] c"zstd\00", align 1

; Function Attrs: cold fn_ret_thunk_extern nofree nounwind null_pointer_is_valid optsize memory(argmem: readwrite)
define dso_local ptr @decompress_method(ptr nocapture noundef readonly %0, i64 noundef %1, ptr noundef writeonly %2) local_unnamed_addr #0 section ".init.text" align 16 {
  %4 = icmp slt i64 %1, 2
  br i1 %4, label %8, label %5

5:                                                ; preds = %3
  %6 = tail call i32 @bcmp(ptr noundef dereferenceable(2) %0, ptr noundef nonnull dereferenceable(2) @compressed_formats, i64 2)
  %7 = icmp eq i32 %6, 0
  br i1 %7, label %.loopexit, label %.preheader

8:                                                ; preds = %3
  %9 = icmp eq ptr %2, null
  br i1 %9, label %26, label %10

10:                                               ; preds = %8
  store ptr null, ptr %2, align 8
  br label %26

11:                                               ; preds = %.preheader
  %12 = getelementptr i8, ptr %15, i64 24
  %13 = tail call i32 @bcmp(ptr noundef dereferenceable(2) %0, ptr noundef dereferenceable(2) %12, i64 2)
  %14 = icmp eq i32 %13, 0
  br i1 %14, label %.loopexit, label %.preheader, !llvm.loop !5

.preheader:                                       ; preds = %5, %11
  %15 = phi ptr [ %12, %11 ], [ @compressed_formats, %5 ]
  %16 = getelementptr i8, ptr %15, i64 32
  %17 = load ptr, ptr %16, align 8
  %18 = icmp eq ptr %17, null
  br i1 %18, label %.loopexit, label %11, !llvm.loop !5

.loopexit:                                        ; preds = %.preheader, %11, %5
  %19 = phi ptr [ @compressed_formats, %5 ], [ %12, %11 ], [ getelementptr inbounds ([9 x %struct.compress_format], ptr @compressed_formats, i64 0, i64 8, i32 0, i64 0), %.preheader ]
  %20 = phi ptr [ @.str, %5 ], [ %17, %11 ], [ null, %.preheader ]
  %21 = icmp eq ptr %2, null
  br i1 %21, label %23, label %22

22:                                               ; preds = %.loopexit
  store ptr %20, ptr %2, align 8
  br label %23

23:                                               ; preds = %22, %.loopexit
  %24 = getelementptr inbounds i8, ptr %19, i64 16
  %25 = load ptr, ptr %24, align 8
  br label %26

26:                                               ; preds = %23, %10, %8
  %27 = phi ptr [ %25, %23 ], [ null, %10 ], [ null, %8 ]
  ret ptr %27
}

; Function Attrs: null_pointer_is_valid
declare dso_local i32 @gunzip(ptr noundef, i64 noundef, ptr noundef, ptr noundef, ptr noundef, ptr noundef, ptr noundef) #1

; Function Attrs: null_pointer_is_valid
declare dso_local i32 @bunzip2(ptr noundef, i64 noundef, ptr noundef, ptr noundef, ptr noundef, ptr noundef, ptr noundef) #1

; Function Attrs: null_pointer_is_valid
declare dso_local i32 @unlzma(ptr noundef, i64 noundef, ptr noundef, ptr noundef, ptr noundef, ptr noundef, ptr noundef) #1

; Function Attrs: null_pointer_is_valid
declare dso_local i32 @unxz(ptr noundef, i64 noundef, ptr noundef, ptr noundef, ptr noundef, ptr noundef, ptr noundef) #1

; Function Attrs: null_pointer_is_valid
declare dso_local i32 @unlzo(ptr noundef, i64 noundef, ptr noundef, ptr noundef, ptr noundef, ptr noundef, ptr noundef) #1

; Function Attrs: null_pointer_is_valid
declare dso_local i32 @unlz4(ptr noundef, i64 noundef, ptr noundef, ptr noundef, ptr noundef, ptr noundef, ptr noundef) #1

; Function Attrs: null_pointer_is_valid
declare dso_local i32 @unzstd(ptr noundef, i64 noundef, ptr noundef, ptr noundef, ptr noundef, ptr noundef, ptr noundef) #1

; Function Attrs: mustprogress nofree nounwind willreturn memory(argmem: read)
declare i32 @bcmp(ptr nocapture, ptr nocapture, i64) local_unnamed_addr #2


!llvm.module.flags = !{!0, !1, !2, !3, !4}

!0 = !{i32 1, !"wchar_size", i32 2}
!1 = !{i32 8, !"cf-protection-branch", i32 1}
!2 = !{i32 4, !"function_return_thunk_extern", i32 1}
!3 = !{i32 4, !"indirect_branch_cs_prefix", i32 1}
!4 = !{i32 4, !"SkipRaxSetup", i32 1}
!5 = distinct !{!5, !6, !7}
!6 = !{!"llvm.loop.mustprogress"}
!7 = !{!"llvm.loop.unroll.disable"}
